; Function Attrs: mustprogress nounwind uwtable
define hidden noundef ptr @_ZNK13InstanceKlass9init_lockEv(ptr nocapture noundef nonnull readonly align 8 dereferenceable(464) %0) local_unnamed_addr #0 align 2 {
  %2 = getelementptr inbounds i8, ptr %0, i64 112
  %3 = load ptr, ptr %2, align 8
  %4 = icmp eq ptr %3, null
  br i1 %4, label %_ZNK5Klass11java_mirrorEv.exit, label %5

5:                                                ; preds = %1
  %6 = load ptr, ptr @_ZN14AccessInternal15RuntimeDispatchILm548932EP7oopDescLNS_11BarrierTypeE2EE10_load_funcE, align 8
  %7 = tail call noundef ptr %6(ptr noundef nonnull %3) #26
  br label %_ZNK5Klass11java_mirrorEv.exit

_ZNK5Klass11java_mirrorEv.exit:                   ; preds = %1, %5
  %8 = phi ptr [ %7, %5 ], [ null, %1 ]
  %9 = tail call noundef ptr @_ZN15java_lang_Class9init_lockEP7oopDesc(ptr noundef %8) #26
  tail call void asm sideeffect "", "~{memory},~{dirflag},~{fpsr},~{flags}"() #26, !srcloc !9
  ret ptr %9
}